target datalayout = "e-m:e-p270:32:32-p271:32:32-p272:64:64-i64:64-i128:128-f80:128-n8:16:32:64-S128"
target triple = "x86_64-pc-linux-gnu"

; Function Attrs: nounwind uwtable
define internal void @maskedmax16(ptr noundef %0, ptr noundef %1, ptr noundef %2, ptr noundef %3, i32 noundef %4) #2 {
  %6 = alloca ptr, align 8
  %7 = alloca ptr, align 8
  %8 = alloca ptr, align 8
  %9 = alloca ptr, align 8
  %10 = alloca i32, align 4
  %11 = alloca ptr, align 8
  %12 = alloca ptr, align 8
  %13 = alloca ptr, align 8
  %14 = alloca ptr, align 8
  %15 = alloca i32, align 4
  store ptr %0, ptr %6, align 8, !tbaa !53
  store ptr %1, ptr %7, align 8, !tbaa !53
  store ptr %2, ptr %8, align 8, !tbaa !53
  store ptr %3, ptr %9, align 8, !tbaa !53
  store i32 %4, ptr %10, align 4, !tbaa !44
  call void @llvm.lifetime.start.p0(i64 8, ptr %11) #9
  %16 = load ptr, ptr %6, align 8, !tbaa !53
  store ptr %16, ptr %11, align 8, !tbaa !58
  call void @llvm.lifetime.start.p0(i64 8, ptr %12) #9
  %17 = load ptr, ptr %8, align 8, !tbaa !53
  store ptr %17, ptr %12, align 8, !tbaa !58
  call void @llvm.lifetime.start.p0(i64 8, ptr %13) #9
  %18 = load ptr, ptr %9, align 8, !tbaa !53
  store ptr %18, ptr %13, align 8, !tbaa !58
  call void @llvm.lifetime.start.p0(i64 8, ptr %14) #9
  %19 = load ptr, ptr %7, align 8, !tbaa !53
  store ptr %19, ptr %14, align 8, !tbaa !58
  call void @llvm.lifetime.start.p0(i64 4, ptr %15) #9
  store i32 0, ptr %15, align 4, !tbaa !44
  br label %20

20:                                               ; preds = %138, %5
  %21 = load i32, ptr %15, align 4, !tbaa !44
  %22 = load i32, ptr %10, align 4, !tbaa !44
  %23 = icmp slt i32 %21, %22
  br i1 %23, label %25, label %24

24:                                               ; preds = %20
  call void @llvm.lifetime.end.p0(i64 4, ptr %15) #9
  br label %141

25:                                               ; preds = %20
  %26 = load ptr, ptr %11, align 8, !tbaa !58
  %27 = load i32, ptr %15, align 4, !tbaa !44
  %28 = sext i32 %27 to i64
  %29 = getelementptr inbounds i16, ptr %26, i64 %28
  %30 = load i16, ptr %29, align 2, !tbaa !60
  %31 = zext i16 %30 to i32
  %32 = load ptr, ptr %13, align 8, !tbaa !58
  %33 = load i32, ptr %15, align 4, !tbaa !44
  %34 = sext i32 %33 to i64
  %35 = getelementptr inbounds i16, ptr %32, i64 %34
  %36 = load i16, ptr %35, align 2, !tbaa !60
  %37 = zext i16 %36 to i32
  %38 = sub nsw i32 %31, %37
  %39 = icmp sge i32 %38, 0
  br i1 %39, label %40, label %54

40:                                               ; preds = %25
  %41 = load ptr, ptr %11, align 8, !tbaa !58
  %42 = load i32, ptr %15, align 4, !tbaa !44
  %43 = sext i32 %42 to i64
  %44 = getelementptr inbounds i16, ptr %41, i64 %43
  %45 = load i16, ptr %44, align 2, !tbaa !60
  %46 = zext i16 %45 to i32
  %47 = load ptr, ptr %13, align 8, !tbaa !58
  %48 = load i32, ptr %15, align 4, !tbaa !44
  %49 = sext i32 %48 to i64
  %50 = getelementptr inbounds i16, ptr %47, i64 %49
  %51 = load i16, ptr %50, align 2, !tbaa !60
  %52 = zext i16 %51 to i32
  %53 = sub nsw i32 %46, %52
  br label %69

54:                                               ; preds = %25
  %55 = load ptr, ptr %11, align 8, !tbaa !58
  %56 = load i32, ptr %15, align 4, !tbaa !44
  %57 = sext i32 %56 to i64
  %58 = getelementptr inbounds i16, ptr %55, i64 %57
  %59 = load i16, ptr %58, align 2, !tbaa !60
  %60 = zext i16 %59 to i32
  %61 = load ptr, ptr %13, align 8, !tbaa !58
  %62 = load i32, ptr %15, align 4, !tbaa !44
  %63 = sext i32 %62 to i64
  %64 = getelementptr inbounds i16, ptr %61, i64 %63
  %65 = load i16, ptr %64, align 2, !tbaa !60
  %66 = zext i16 %65 to i32
  %67 = sub nsw i32 %60, %66
  %68 = sub nsw i32 0, %67
  br label %69

69:                                               ; preds = %54, %40
  %70 = phi i32 [ %53, %40 ], [ %68, %54 ]
  %71 = load ptr, ptr %11, align 8, !tbaa !58
  %72 = load i32, ptr %15, align 4, !tbaa !44
  %73 = sext i32 %72 to i64
  %74 = getelementptr inbounds i16, ptr %71, i64 %73
  %75 = load i16, ptr %74, align 2, !tbaa !60
  %76 = zext i16 %75 to i32
  %77 = load ptr, ptr %12, align 8, !tbaa !58
  %78 = load i32, ptr %15, align 4, !tbaa !44
  %79 = sext i32 %78 to i64
  %80 = getelementptr inbounds i16, ptr %77, i64 %79
  %81 = load i16, ptr %80, align 2, !tbaa !60
  %82 = zext i16 %81 to i32
  %83 = sub nsw i32 %76, %82
  %84 = icmp sge i32 %83, 0
  br i1 %84, label %85, label %99

85:                                               ; preds = %69
  %86 = load ptr, ptr %11, align 8, !tbaa !58
  %87 = load i32, ptr %15, align 4, !tbaa !44
  %88 = sext i32 %87 to i64
  %89 = getelementptr inbounds i16, ptr %86, i64 %88
  %90 = load i16, ptr %89, align 2, !tbaa !60
  %91 = zext i16 %90 to i32
  %92 = load ptr, ptr %12, align 8, !tbaa !58
  %93 = load i32, ptr %15, align 4, !tbaa !44
  %94 = sext i32 %93 to i64
  %95 = getelementptr inbounds i16, ptr %92, i64 %94
  %96 = load i16, ptr %95, align 2, !tbaa !60
  %97 = zext i16 %96 to i32
  %98 = sub nsw i32 %91, %97
  br label %114

99:                                               ; preds = %69
  %100 = load ptr, ptr %11, align 8, !tbaa !58
  %101 = load i32, ptr %15, align 4, !tbaa !44
  %102 = sext i32 %101 to i64
  %103 = getelementptr inbounds i16, ptr %100, i64 %102
  %104 = load i16, ptr %103, align 2, !tbaa !60
  %105 = zext i16 %104 to i32
  %106 = load ptr, ptr %12, align 8, !tbaa !58
  %107 = load i32, ptr %15, align 4, !tbaa !44
  %108 = sext i32 %107 to i64
  %109 = getelementptr inbounds i16, ptr %106, i64 %108
  %110 = load i16, ptr %109, align 2, !tbaa !60
  %111 = zext i16 %110 to i32
  %112 = sub nsw i32 %105, %111
  %113 = sub nsw i32 0, %112
  br label %114

114:                                              ; preds = %99, %85
  %115 = phi i32 [ %98, %85 ], [ %113, %99 ]
  %116 = icmp sgt i32 %70, %115
  br i1 %116, label %117, label %124

117:                                              ; preds = %114
  %118 = load ptr, ptr %13, align 8, !tbaa !58
  %119 = load i32, ptr %15, align 4, !tbaa !44
  %120 = sext i32 %119 to i64
  %121 = getelementptr inbounds i16, ptr %118, i64 %120
  %122 = load i16, ptr %121, align 2, !tbaa !60
  %123 = zext i16 %122 to i32
  br label %131

124:                                              ; preds = %114
  %125 = load ptr, ptr %12, align 8, !tbaa !58
  %126 = load i32, ptr %15, align 4, !tbaa !44
  %127 = sext i32 %126 to i64
  %128 = getelementptr inbounds i16, ptr %125, i64 %127
  %129 = load i16, ptr %128, align 2, !tbaa !60
  %130 = zext i16 %129 to i32
  br label %131

131:                                              ; preds = %124, %117
  %132 = phi i32 [ %123, %117 ], [ %130, %124 ]
  %133 = trunc i32 %132 to i16
  %134 = load ptr, ptr %14, align 8, !tbaa !58
  %135 = load i32, ptr %15, align 4, !tbaa !44
  %136 = sext i32 %135 to i64
  %137 = getelementptr inbounds i16, ptr %134, i64 %136
  store i16 %133, ptr %137, align 2, !tbaa !60
  br label %138

138:                                              ; preds = %131
  %139 = load i32, ptr %15, align 4, !tbaa !44
  %140 = add nsw i32 %139, 1
  store i32 %140, ptr %15, align 4, !tbaa !44
  br label %20, !llvm.loop !63

141:                                              ; preds = %24
  call void @llvm.lifetime.end.p0(i64 8, ptr %14) #9
  call void @llvm.lifetime.end.p0(i64 8, ptr %13) #9
  call void @llvm.lifetime.end.p0(i64 8, ptr %12) #9
  call void @llvm.lifetime.end.p0(i64 8, ptr %11) #9
  ret void
}