; Function Attrs: nofree norecurse nosync nounwind memory(argmem: readwrite) uwtable
define internal void @maskedmax16(ptr noundef readonly captures(none) %0, ptr noundef writeonly captures(none) %1, ptr noundef readonly captures(none) %2, ptr noundef readonly captures(none) %3, i32 noundef %4) #5 {
  %6 = icmp sgt i32 %4, 0
  br i1 %6, label %.lr.ph.preheader, label %._crit_edge

.lr.ph.preheader:                                 ; preds = %5
  %wide.trip.count = zext nneg i32 %4 to i64
  br label %.lr.ph

._crit_edge:                                      ; preds = %.lr.ph, %5
  ret void

.lr.ph:                                           ; preds = %.lr.ph.preheader, %.lr.ph
  %indvars.iv = phi i64 [ 0, %.lr.ph.preheader ], [ %indvars.iv.next, %.lr.ph ]
  %7 = getelementptr inbounds nuw i16, ptr %0, i64 %indvars.iv
  %8 = load i16, ptr %7, align 2, !tbaa !50
  %9 = zext i16 %8 to i32
  %10 = getelementptr inbounds nuw i16, ptr %3, i64 %indvars.iv
  %11 = load i16, ptr %10, align 2, !tbaa !50
  %12 = zext i16 %11 to i32
  %13 = sub nsw i32 %9, %12
  %14 = tail call i32 @llvm.abs.i32(i32 %13, i1 true)
  %15 = getelementptr inbounds nuw i16, ptr %2, i64 %indvars.iv
  %16 = load i16, ptr %15, align 2, !tbaa !50
  %17 = zext i16 %16 to i32
  %18 = sub nsw i32 %9, %17
  %19 = tail call i32 @llvm.abs.i32(i32 %18, i1 true)
  %20 = icmp samesign ugt i32 %14, %19
  %.in39 = select i1 %20, i16 %11, i16 %16
  %21 = getelementptr inbounds nuw i16, ptr %1, i64 %indvars.iv
  store i16 %.in39, ptr %21, align 2, !tbaa !50
  %indvars.iv.next = add nuw nsw i64 %indvars.iv, 1
  %exitcond.not = icmp eq i64 %indvars.iv.next, %wide.trip.count
  br i1 %exitcond.not, label %._crit_edge, label %.lr.ph, !llvm.loop !53
}